target datalayout = "e-m:e-p270:32:32-p271:32:32-p272:64:64-i64:64-i128:128-f80:128-n8:16:32:64-S128"
target triple = "x86_64-pc-linux-gnu"

@cluster_flags = external global i32, align 4
@main_window = external global ptr, align 8
@.str.44 = private unnamed_addr constant [12 x i8] c"Update Gres\00", align 1
@.str.45 = private unnamed_addr constant [26 x i8] c"Update Available Features\00", align 1
@.str.46 = private unnamed_addr constant [21 x i8] c"Update Node Features\00", align 1
@.str.47 = private unnamed_addr constant [25 x i8] c"Update Midplane Features\00", align 1
@.str.48 = private unnamed_addr constant [23 x i8] c"Update Active Features\00", align 1

; Function Attrs: nounwind uwtable
define dso_local void @admin_node_name(ptr noundef %0, ptr noundef %1, ptr noundef %2) #0 {
  %4 = alloca ptr, align 8
  %5 = alloca ptr, align 8
  %6 = alloca ptr, align 8
  %7 = alloca ptr, align 8
  %8 = alloca i32, align 4
  store ptr %0, ptr %4, align 8
  store ptr %1, ptr %5, align 8
  store ptr %2, ptr %6, align 8
  call void @llvm.lifetime.start.p0(i64 8, ptr %7) #7
  store ptr null, ptr %7, align 8
  %9 = load i32, ptr @cluster_flags, align 4
  %10 = zext i32 %9 to i64
  %11 = and i64 %10, 2048
  %12 = icmp ne i64 %11, 0
  br i1 %12, label %13, label %15

13:                                               ; preds = %3
  %14 = load ptr, ptr %6, align 8
  call void @display_fed_disabled_popup(ptr noundef %14)
  store i32 1, ptr %8, align 4
  br label %78

15:                                               ; preds = %3
  %16 = load ptr, ptr %6, align 8
  %17 = load ptr, ptr @main_window, align 8
  %18 = call i64 @gtk_window_get_type() #8
  %19 = call ptr @g_type_check_instance_cast(ptr noundef %17, i64 noundef %18)
  %20 = call ptr (ptr, ptr, i32, ptr, ...) @gtk_dialog_new_with_buttons(ptr noundef %16, ptr noundef %19, i32 noundef 3, ptr noundef null)
  store ptr %20, ptr %7, align 8
  %21 = load ptr, ptr %7, align 8
  %22 = call i64 @gtk_window_get_type() #8
  %23 = call ptr @g_type_check_instance_cast(ptr noundef %21, i64 noundef %22)
  call void @gtk_window_set_type_hint(ptr noundef %23, i32 noundef 0)
  %24 = load ptr, ptr %7, align 8
  %25 = call i64 @gtk_window_get_type() #8
  %26 = call ptr @g_type_check_instance_cast(ptr noundef %24, i64 noundef %25)
  call void @gtk_window_set_transient_for(ptr noundef %26, ptr noundef null)
  %27 = load ptr, ptr %6, align 8
  %28 = call i32 @xstrcasecmp(ptr noundef @.str.45, ptr noundef %27)
  %29 = icmp ne i32 %28, 0
  br i1 %29, label %30, label %38

30:                                               ; preds = %15
  %31 = load ptr, ptr %6, align 8
  %32 = call i32 @xstrcasecmp(ptr noundef @.str.46, ptr noundef %31)
  %33 = icmp ne i32 %32, 0
  br i1 %33, label %34, label %38

34:                                               ; preds = %30
  %35 = load ptr, ptr %6, align 8
  %36 = call i32 @xstrcasecmp(ptr noundef @.str.47, ptr noundef %35)
  %37 = icmp ne i32 %36, 0
  br i1 %37, label %45, label %38

38:                                               ; preds = %34, %30, %15
  %39 = load ptr, ptr %7, align 8
  %40 = call i64 @gtk_dialog_get_type() #8
  %41 = call ptr @g_type_check_instance_cast(ptr noundef %39, i64 noundef %40)
  %42 = load ptr, ptr %4, align 8
  %43 = load ptr, ptr %5, align 8
  %44 = call i32 @update_avail_features_node(ptr noundef %41, ptr noundef %42, ptr noundef %43)
  br label %76

45:                                               ; preds = %34
  %46 = load ptr, ptr %6, align 8
  %47 = call i32 @xstrcasecmp(ptr noundef @.str.48, ptr noundef %46)
  %48 = icmp ne i32 %47, 0
  br i1 %48, label %56, label %49

49:                                               ; preds = %45
  %50 = load ptr, ptr %7, align 8
  %51 = call i64 @gtk_dialog_get_type() #8
  %52 = call ptr @g_type_check_instance_cast(ptr noundef %50, i64 noundef %51)
  %53 = load ptr, ptr %4, align 8
  %54 = load ptr, ptr %5, align 8
  %55 = call i32 @update_active_features_node(ptr noundef %52, ptr noundef %53, ptr noundef %54)
  br label %75

56:                                               ; preds = %45
  %57 = load ptr, ptr %6, align 8
  %58 = call i32 @xstrcasecmp(ptr noundef @.str.44, ptr noundef %57)
  %59 = icmp ne i32 %58, 0
  br i1 %59, label %67, label %60

60:                                               ; preds = %56
  %61 = load ptr, ptr %7, align 8
  %62 = call i64 @gtk_dialog_get_type() #8
  %63 = call ptr @g_type_check_instance_cast(ptr noundef %61, i64 noundef %62)
  %64 = load ptr, ptr %4, align 8
  %65 = load ptr, ptr %5, align 8
  %66 = call i32 @update_gres_node(ptr noundef %63, ptr noundef %64, ptr noundef %65)
  br label %74

67:                                               ; preds = %56
  %68 = load ptr, ptr %7, align 8
  %69 = call i64 @gtk_dialog_get_type() #8
  %70 = call ptr @g_type_check_instance_cast(ptr noundef %68, i64 noundef %69)
  %71 = load ptr, ptr %4, align 8
  %72 = load ptr, ptr %6, align 8
  %73 = call i32 @update_state_node(ptr noundef %70, ptr noundef %71, ptr noundef %72)
  br label %74

74:                                               ; preds = %67, %60
  br label %75

75:                                               ; preds = %74, %49
  br label %76

76:                                               ; preds = %75, %38
  %77 = load ptr, ptr %7, align 8
  call void @gtk_widget_destroy(ptr noundef %77)
  store i32 1, ptr %8, align 4
  br label %78

78:                                               ; preds = %76, %13
  call void @llvm.lifetime.end.p0(i64 8, ptr %7) #7
  ret void
}