; Function Attrs: nounwind uwtable
define dso_local void @admin_node_name(ptr noundef %0, ptr noundef %1, ptr noundef %2) local_unnamed_addr #0 {
  %4 = load i32, ptr @cluster_flags, align 4
  %5 = and i32 %4, 2048
  %.not = icmp eq i32 %5, 0
  br i1 %.not, label %7, label %6

6:                                                ; preds = %3
  tail call void @display_fed_disabled_popup(ptr noundef %2) #11
  br label %38

7:                                                ; preds = %3
  %8 = load ptr, ptr @main_window, align 8
  %9 = tail call i64 @gtk_window_get_type() #12
  %10 = tail call ptr @g_type_check_instance_cast(ptr noundef %8, i64 noundef %9) #11
  %11 = tail call ptr (ptr, ptr, i32, ptr, ...) @gtk_dialog_new_with_buttons(ptr noundef %2, ptr noundef %10, i32 noundef 3, ptr noundef null) #11
  %12 = tail call ptr @g_type_check_instance_cast(ptr noundef %11, i64 noundef %9) #11
  tail call void @gtk_window_set_type_hint(ptr noundef %12, i32 noundef 0) #11
  %13 = tail call ptr @g_type_check_instance_cast(ptr noundef %11, i64 noundef %9) #11
  tail call void @gtk_window_set_transient_for(ptr noundef %13, ptr noundef null) #11
  %14 = tail call i32 @xstrcasecmp(ptr noundef nonnull @.str.45, ptr noundef %2) #11
  %.not22 = icmp eq i32 %14, 0
  br i1 %.not22, label %19, label %15

15:                                               ; preds = %7
  %16 = tail call i32 @xstrcasecmp(ptr noundef nonnull @.str.46, ptr noundef %2) #11
  %.not23 = icmp eq i32 %16, 0
  br i1 %.not23, label %19, label %17

17:                                               ; preds = %15
  %18 = tail call i32 @xstrcasecmp(ptr noundef nonnull @.str.47, ptr noundef %2) #11
  %.not24 = icmp eq i32 %18, 0
  br i1 %.not24, label %19, label %23

19:                                               ; preds = %17, %15, %7
  %20 = tail call i64 @gtk_dialog_get_type() #12
  %21 = tail call ptr @g_type_check_instance_cast(ptr noundef %11, i64 noundef %20) #11
  %22 = tail call i32 @update_avail_features_node(ptr noundef %21, ptr noundef %0, ptr noundef %1)
  br label %37

23:                                               ; preds = %17
  %24 = tail call i32 @xstrcasecmp(ptr noundef nonnull @.str.48, ptr noundef %2) #11
  %.not25 = icmp eq i32 %24, 0
  br i1 %.not25, label %25, label %29

25:                                               ; preds = %23
  %26 = tail call i64 @gtk_dialog_get_type() #12
  %27 = tail call ptr @g_type_check_instance_cast(ptr noundef %11, i64 noundef %26) #11
  %28 = tail call i32 @update_active_features_node(ptr noundef %27, ptr noundef %0, ptr noundef %1)
  br label %37

29:                                               ; preds = %23
  %30 = tail call i32 @xstrcasecmp(ptr noundef nonnull @.str.44, ptr noundef %2) #11
  %.not26 = icmp eq i32 %30, 0
  %31 = tail call i64 @gtk_dialog_get_type() #12
  %32 = tail call ptr @g_type_check_instance_cast(ptr noundef %11, i64 noundef %31) #11
  br i1 %.not26, label %33, label %35

33:                                               ; preds = %29
  %34 = tail call i32 @update_gres_node(ptr noundef %32, ptr noundef %0, ptr noundef %1)
  br label %37

35:                                               ; preds = %29
  %36 = tail call i32 @update_state_node(ptr noundef %32, ptr noundef %0, ptr noundef %2)
  br label %37

37:                                               ; preds = %25, %35, %33, %19
  tail call void @gtk_widget_destroy(ptr noundef %11) #11
  br label %38

38:                                               ; preds = %37, %6
  ret void
}